; Function Attrs: mustprogress uwtable
define void @_ZN15VoipCallsDialog16rtpPlayerReplaceEv(ptr noundef nonnull align 8 dereferenceable(480) %0) local_unnamed_addr #0 align 2 personality ptr @__gxx_personality_v0 {
  %2 = alloca %class.QList.8, align 8
  %3 = alloca %class.QList.12, align 8
  %4 = getelementptr inbounds i8, ptr %0, i64 136
  %5 = load ptr, ptr %4, align 8
  %6 = getelementptr inbounds i8, ptr %5, i64 80
  %7 = load ptr, ptr %6, align 8
  %8 = tail call noundef ptr @_ZNK17QAbstractItemView14selectionModelEv(ptr noundef nonnull align 8 dereferenceable(40) %7)
  call void @_ZNK19QItemSelectionModel15selectedIndexesEv(ptr dead_on_unwind nonnull writable sret(%class.QList.8) align 8 %2, ptr noundef nonnull align 8 dereferenceable(16) %8)
  %9 = getelementptr inbounds i8, ptr %2, i64 16
  %10 = load i64, ptr %9, align 8
  %11 = icmp slt i64 %10, 1
  %12 = load ptr, ptr %2, align 8
  %.not.i.i.i = icmp eq ptr %12, null
  br i1 %.not.i.i.i, label %_ZN5QListI11QModelIndexED2Ev.exit, label %_ZN17QArrayDataPointerI11QModelIndexE5derefEv.exit.i.i

_ZN17QArrayDataPointerI11QModelIndexE5derefEv.exit.i.i: ; preds = %1
  %13 = atomicrmw sub ptr %12, i32 1 seq_cst, align 4
  %.not.i.i = icmp eq i32 %13, 1
  br i1 %.not.i.i, label %14, label %_ZN5QListI11QModelIndexED2Ev.exit

14:                                               ; preds = %_ZN17QArrayDataPointerI11QModelIndexE5derefEv.exit.i.i
  %15 = load ptr, ptr %2, align 8
  call void @_ZN10QArrayData10deallocateEPS_xx(ptr noundef %15, i64 noundef 24, i64 noundef 8) #19
  br label %_ZN5QListI11QModelIndexED2Ev.exit

_ZN5QListI11QModelIndexED2Ev.exit:                ; preds = %1, %_ZN17QArrayDataPointerI11QModelIndexE5derefEv.exit.i.i, %14
  br i1 %11, label %_ZN5QListIP13_rtpstream_idED2Ev.exit, label %16

16:                                               ; preds = %_ZN5QListI11QModelIndexED2Ev.exit
  call void @_ZN15VoipCallsDialog17getSelectedRtpIdsEv(ptr dead_on_unwind nonnull writable sret(%class.QList.12) align 8 %3, ptr noundef nonnull align 8 dereferenceable(480) %0)
  invoke void @_ZN15VoipCallsDialog32rtpPlayerDialogReplaceRtpStreamsE5QListIP13_rtpstream_idE(ptr noundef nonnull align 8 dereferenceable(480) %0, ptr noundef nonnull %3)
          to label %17 unwind label %22

17:                                               ; preds = %16
  %18 = load ptr, ptr %3, align 8
  %.not.i.i.i2 = icmp eq ptr %18, null
  br i1 %.not.i.i.i2, label %_ZN5QListIP13_rtpstream_idED2Ev.exit, label %_ZN17QArrayDataPointerIP13_rtpstream_idE5derefEv.exit.i.i

_ZN17QArrayDataPointerIP13_rtpstream_idE5derefEv.exit.i.i: ; preds = %17
  %19 = atomicrmw sub ptr %18, i32 1 seq_cst, align 4
  %.not.i.i3 = icmp eq i32 %19, 1
  br i1 %.not.i.i3, label %20, label %_ZN5QListIP13_rtpstream_idED2Ev.exit

20:                                               ; preds = %_ZN17QArrayDataPointerIP13_rtpstream_idE5derefEv.exit.i.i
  %21 = load ptr, ptr %3, align 8
  call void @_ZN10QArrayData10deallocateEPS_xx(ptr noundef %21, i64 noundef 8, i64 noundef 8) #19
  br label %_ZN5QListIP13_rtpstream_idED2Ev.exit

_ZN5QListIP13_rtpstream_idED2Ev.exit:             ; preds = %20, %_ZN17QArrayDataPointerIP13_rtpstream_idE5derefEv.exit.i.i, %17, %_ZN5QListI11QModelIndexED2Ev.exit
  ret void

22:                                               ; preds = %16
  %23 = landingpad { ptr, i32 }
          cleanup
  %24 = load ptr, ptr %3, align 8
  %.not.i.i.i4 = icmp eq ptr %24, null
  br i1 %.not.i.i.i4, label %_ZN5QListIP13_rtpstream_idED2Ev.exit7, label %_ZN17QArrayDataPointerIP13_rtpstream_idE5derefEv.exit.i.i5

_ZN17QArrayDataPointerIP13_rtpstream_idE5derefEv.exit.i.i5: ; preds = %22
  %25 = atomicrmw sub ptr %24, i32 1 seq_cst, align 4
  %.not.i.i6 = icmp eq i32 %25, 1
  br i1 %.not.i.i6, label %26, label %_ZN5QListIP13_rtpstream_idED2Ev.exit7

26:                                               ; preds = %_ZN17QArrayDataPointerIP13_rtpstream_idE5derefEv.exit.i.i5
  %27 = load ptr, ptr %3, align 8
  call void @_ZN10QArrayData10deallocateEPS_xx(ptr noundef %27, i64 noundef 8, i64 noundef 8) #19
  br label %_ZN5QListIP13_rtpstream_idED2Ev.exit7

_ZN5QListIP13_rtpstream_idED2Ev.exit7:            ; preds = %22, %_ZN17QArrayDataPointerIP13_rtpstream_idE5derefEv.exit.i.i5, %26
  resume { ptr, i32 } %23
}